target datalayout = "e-m:e-p270:32:32-p271:32:32-p272:64:64-i64:64-i128:128-f80:128-n8:16:32:64-S128"
target triple = "x86_64-pc-linux-gnu"

%struct._zval_struct = type { %union._zend_value, %union.anon.3, %union.anon.6 }
%union._zend_value = type { i64 }
%union.anon.3 = type { i32 }
%union.anon.6 = type { i32 }
%struct.stat = type { i64, i64, i64, i32, i32, i32, i32, i64, i64, i64, i64, %struct.timespec, %struct.timespec, %struct.timespec, [3 x i64] }
%struct.timespec = type { i64, i64 }
%struct._php_stream = type { ptr, ptr, %struct._php_stream_filter_chain, %struct._php_stream_filter_chain, ptr, ptr, %struct._zval_struct, i16, [16 x i8], i32, ptr, ptr, ptr, ptr, i64, ptr, i64, i64, i64, i64, ptr }
%struct._php_stream_filter_chain = type { ptr, ptr, ptr }
%struct._php_stream_statbuf = type { %struct.stat }

; Function Attrs: nounwind uwtable
define internal i64 @php_zend_stream_fsizer(ptr noundef %0) #1 {
  %2 = alloca i64, align 8
  %3 = alloca ptr, align 8
  %4 = alloca ptr, align 8
  %5 = alloca %struct._php_stream_statbuf, align 8
  %6 = alloca i32, align 4
  store ptr %0, ptr %3, align 8, !tbaa !56
  call void @llvm.lifetime.start.p0(i64 8, ptr %4) #18
  %7 = load ptr, ptr %3, align 8, !tbaa !56
  store ptr %7, ptr %4, align 8, !tbaa !112
  call void @llvm.lifetime.start.p0(i64 144, ptr %5) #18
  %8 = load ptr, ptr %4, align 8, !tbaa !112
  %9 = getelementptr inbounds nuw %struct._php_stream, ptr %8, i32 0, i32 2
  %10 = getelementptr inbounds nuw %struct._php_stream_filter_chain, ptr %9, i32 0, i32 0
  %11 = load ptr, ptr %10, align 8, !tbaa !114
  %12 = icmp ne ptr %11, null
  br i1 %12, label %13, label %14

13:                                               ; preds = %1
  store i64 0, ptr %2, align 8
  store i32 1, ptr %6, align 4
  br label %23

14:                                               ; preds = %1
  %15 = load ptr, ptr %4, align 8, !tbaa !112
  %16 = call i32 @_php_stream_stat(ptr noundef %15, ptr noundef %5)
  %17 = icmp eq i32 %16, 0
  br i1 %17, label %18, label %22

18:                                               ; preds = %14
  %19 = getelementptr inbounds nuw %struct._php_stream_statbuf, ptr %5, i32 0, i32 0
  %20 = getelementptr inbounds nuw %struct.stat, ptr %19, i32 0, i32 8
  %21 = load i64, ptr %20, align 8, !tbaa !122
  store i64 %21, ptr %2, align 8
  store i32 1, ptr %6, align 4
  br label %23

22:                                               ; preds = %14
  store i64 0, ptr %2, align 8
  store i32 1, ptr %6, align 4
  br label %23

23:                                               ; preds = %22, %18, %13
  call void @llvm.lifetime.end.p0(i64 144, ptr %5) #18
  call void @llvm.lifetime.end.p0(i64 8, ptr %4) #18
  %24 = load i64, ptr %2, align 8
  ret i64 %24
}