; Function Attrs: nounwind uwtable
define internal i64 @php_zend_stream_fsizer(ptr noundef %0) #2 {
  %2 = alloca %struct._php_stream_statbuf, align 8
  call void @llvm.lifetime.start.p0(i64 144, ptr nonnull %2) #28
  %3 = getelementptr inbounds nuw i8, ptr %0, i64 16
  %4 = load ptr, ptr %3, align 8, !tbaa !100
  %.not = icmp eq ptr %4, null
  br i1 %.not, label %5, label %11

5:                                                ; preds = %1
  %6 = call i32 @_php_stream_stat(ptr noundef nonnull %0, ptr noundef nonnull %2) #28
  %7 = icmp eq i32 %6, 0
  br i1 %7, label %8, label %11

8:                                                ; preds = %5
  %9 = getelementptr inbounds nuw i8, ptr %2, i64 48
  %10 = load i64, ptr %9, align 8, !tbaa !108
  br label %11

11:                                               ; preds = %5, %1, %8
  %.0 = phi i64 [ %10, %8 ], [ 0, %1 ], [ 0, %5 ]
  call void @llvm.lifetime.end.p0(i64 144, ptr nonnull %2) #28
  ret i64 %.0
}